target datalayout = "e-m:e-p270:32:32-p271:32:32-p272:64:64-i64:64-i128:128-f80:128-n8:16:32:64-S128"
target triple = "x86_64-pc-linux-gnu"

%struct.Scl_Item_t_ = type { i32, i32, %struct.Scl_Pair_t_, %struct.Scl_Pair_t_, %struct.Scl_Pair_t_, i32, i32 }
%struct.Scl_Pair_t_ = type { i32, i32 }
%struct.Scl_Tree_t_ = type { ptr, ptr, i64, i32, i32, i32, ptr, ptr, i64, ptr }

@.str.48 = private unnamed_addr constant [18 x i8] c"default_wire_load\00", align 1
@.str.49 = private unnamed_addr constant [1 x i8] zeroinitializer, align 1

; Function Attrs: nounwind uwtable
define internal i32 @Scl_LibertyCompare(ptr noundef %0, i64 %1, ptr noundef %2) #0 {
  %4 = alloca %struct.Scl_Pair_t_, align 4
  %5 = alloca ptr, align 8
  %6 = alloca ptr, align 8
  store i64 %1, ptr %4, align 4
  store ptr %0, ptr %5, align 8
  store ptr %2, ptr %6, align 8
  %7 = load ptr, ptr %5, align 8
  %8 = getelementptr inbounds %struct.Scl_Tree_t_, ptr %7, i32 0, i32 1
  %9 = load ptr, ptr %8, align 8
  %10 = getelementptr inbounds %struct.Scl_Pair_t_, ptr %4, i32 0, i32 0
  %11 = load i32, ptr %10, align 4
  %12 = sext i32 %11 to i64
  %13 = getelementptr inbounds i8, ptr %9, i64 %12
  %14 = load ptr, ptr %6, align 8
  %15 = getelementptr inbounds %struct.Scl_Pair_t_, ptr %4, i32 0, i32 1
  %16 = load i32, ptr %15, align 4
  %17 = getelementptr inbounds %struct.Scl_Pair_t_, ptr %4, i32 0, i32 0
  %18 = load i32, ptr %17, align 4
  %19 = sub nsw i32 %16, %18
  %20 = sext i32 %19 to i64
  %21 = call i32 @strncmp(ptr noundef %13, ptr noundef %14, i64 noundef %20) #11
  %22 = icmp ne i32 %21, 0
  br i1 %22, label %33, label %23

23:                                               ; preds = %3
  %24 = load ptr, ptr %6, align 8
  %25 = call i64 @strlen(ptr noundef %24) #11
  %26 = trunc i64 %25 to i32
  %27 = getelementptr inbounds %struct.Scl_Pair_t_, ptr %4, i32 0, i32 1
  %28 = load i32, ptr %27, align 4
  %29 = getelementptr inbounds %struct.Scl_Pair_t_, ptr %4, i32 0, i32 0
  %30 = load i32, ptr %29, align 4
  %31 = sub nsw i32 %28, %30
  %32 = icmp ne i32 %26, %31
  br label %33

33:                                               ; preds = %23, %3
  %34 = phi i1 [ true, %3 ], [ %32, %23 ]
  %35 = zext i1 %34 to i32
  ret i32 %35
}

; Function Attrs: nounwind uwtable
define internal ptr @Scl_LibertyItem(ptr noundef %0, i32 noundef %1) #0 {
  %3 = alloca ptr, align 8
  %4 = alloca i32, align 4
  store ptr %0, ptr %3, align 8
  store i32 %1, ptr %4, align 4
  %5 = load i32, ptr %4, align 4
  %6 = icmp slt i32 %5, 0
  br i1 %6, label %7, label %8

7:                                                ; preds = %2
  br label %15

8:                                                ; preds = %2
  %9 = load ptr, ptr %3, align 8
  %10 = getelementptr inbounds %struct.Scl_Tree_t_, ptr %9, i32 0, i32 6
  %11 = load ptr, ptr %10, align 8
  %12 = load i32, ptr %4, align 4
  %13 = sext i32 %12 to i64
  %14 = getelementptr inbounds %struct.Scl_Item_t_, ptr %11, i64 %13
  br label %15

15:                                               ; preds = %8, %7
  %16 = phi ptr [ null, %7 ], [ %14, %8 ]
  ret ptr %16
}

; Function Attrs: nounwind uwtable
define internal ptr @Scl_LibertyRoot(ptr noundef %0) #0 {
  %2 = alloca ptr, align 8
  store ptr %0, ptr %2, align 8
  %3 = load ptr, ptr %2, align 8
  %4 = getelementptr inbounds %struct.Scl_Tree_t_, ptr %3, i32 0, i32 6
  %5 = load ptr, ptr %4, align 8
  ret ptr %5
}

; Function Attrs: nounwind uwtable
define ptr @Scl_LibertyReadDefaultWireLoad(ptr noundef %0) #0 {
  %2 = alloca ptr, align 8
  %3 = alloca ptr, align 8
  %4 = alloca ptr, align 8
  store ptr %0, ptr %3, align 8
  %5 = load ptr, ptr %3, align 8
  %6 = load ptr, ptr %3, align 8
  %7 = call ptr @Scl_LibertyRoot(ptr noundef %6)
  %8 = getelementptr inbounds %struct.Scl_Item_t_, ptr %7, i32 0, i32 6
  %9 = load i32, ptr %8, align 4
  %10 = call ptr @Scl_LibertyItem(ptr noundef %5, i32 noundef %9)
  store ptr %10, ptr %4, align 8
  br label %11

11:                                               ; preds = %29, %1
  %12 = load ptr, ptr %4, align 8
  %13 = icmp ne ptr %12, null
  br i1 %13, label %14, label %35

14:                                               ; preds = %11
  %15 = load ptr, ptr %3, align 8
  %16 = load ptr, ptr %4, align 8
  %17 = getelementptr inbounds %struct.Scl_Item_t_, ptr %16, i32 0, i32 2
  %18 = load i64, ptr %17, align 4
  %19 = call i32 @Scl_LibertyCompare(ptr noundef %15, i64 %18, ptr noundef @.str.48)
  %20 = icmp ne i32 %19, 0
  br i1 %20, label %21, label %22

21:                                               ; preds = %14
  br label %28

22:                                               ; preds = %14
  %23 = load ptr, ptr %3, align 8
  %24 = load ptr, ptr %4, align 8
  %25 = getelementptr inbounds %struct.Scl_Item_t_, ptr %24, i32 0, i32 3
  %26 = load i64, ptr %25, align 4
  %27 = call ptr @Scl_LibertyReadString(ptr noundef %23, i64 %26)
  store ptr %27, ptr %2, align 8
  br label %36

28:                                               ; preds = %21
  br label %29

29:                                               ; preds = %28
  %30 = load ptr, ptr %3, align 8
  %31 = load ptr, ptr %4, align 8
  %32 = getelementptr inbounds %struct.Scl_Item_t_, ptr %31, i32 0, i32 5
  %33 = load i32, ptr %32, align 4
  %34 = call ptr @Scl_LibertyItem(ptr noundef %30, i32 noundef %33)
  store ptr %34, ptr %4, align 8
  br label %11, !llvm.loop !39

35:                                               ; preds = %11
  store ptr @.str.49, ptr %2, align 8
  br label %36

36:                                               ; preds = %35, %22
  %37 = load ptr, ptr %2, align 8
  ret ptr %37
}