; Function Attrs: nounwind uwtable
define ptr @Scl_LibertyReadDefaultWireLoad(ptr noundef readonly captures(none) %0) local_unnamed_addr #4 {
Scl_LibertyItem.exit:
  %1 = getelementptr i8, ptr %0, i64 40
  %.val = load ptr, ptr %1, align 8
  %2 = getelementptr inbounds nuw i8, ptr %.val, i64 36
  %3 = load i32, ptr %2, align 4
  %4 = icmp slt i32 %3, 0
  %.not1719 = icmp eq ptr %.val, null
  %.not17 = or i1 %4, %.not1719
  br i1 %.not17, label %.loopexit, label %.lr.ph

.lr.ph:                                           ; preds = %Scl_LibertyItem.exit
  %5 = getelementptr i8, ptr %0, i64 8
  %.val12 = load ptr, ptr %5, align 8
  br label %6

6:                                                ; preds = %.lr.ph, %Scl_LibertyCompare.exit.thread
  %.pn.in = phi i32 [ %3, %.lr.ph ], [ %19, %Scl_LibertyCompare.exit.thread ]
  %.pn = zext i32 %.pn.in to i64
  %.018 = getelementptr inbounds nuw %struct.Scl_Item_t_, ptr %.val, i64 %.pn
  %7 = getelementptr inbounds nuw i8, ptr %.018, i64 8
  %8 = load i64, ptr %7, align 4
  %.sroa.0.0.extract.trunc.i = trunc i64 %8 to i32
  %.sroa.4.0.extract.shift.i = lshr i64 %8, 32
  %.sroa.4.0.extract.trunc.i = trunc nuw i64 %.sroa.4.0.extract.shift.i to i32
  %sext.i = shl i64 %8, 32
  %9 = ashr exact i64 %sext.i, 32
  %10 = getelementptr inbounds i8, ptr %.val12, i64 %9
  %11 = sub nsw i32 %.sroa.4.0.extract.trunc.i, %.sroa.0.0.extract.trunc.i
  %12 = sext i32 %11 to i64
  %13 = tail call i32 @strncmp(ptr noundef readonly %10, ptr noundef nonnull @.str.48, i64 noundef %12) #30
  %.not.i = icmp eq i32 %13, 0
  %.not15 = icmp eq i32 %11, 17
  %or.cond = and i1 %.not.i, %.not15
  br i1 %or.cond, label %14, label %Scl_LibertyCompare.exit.thread

14:                                               ; preds = %6
  %15 = getelementptr inbounds nuw i8, ptr %.018, i64 16
  %16 = load i64, ptr %15, align 4
  %17 = tail call ptr @Scl_LibertyReadString(ptr noundef nonnull %0, i64 %16)
  br label %.loopexit

Scl_LibertyCompare.exit.thread:                   ; preds = %6
  %18 = getelementptr inbounds nuw i8, ptr %.018, i64 32
  %19 = load i32, ptr %18, align 4
  %20 = icmp slt i32 %19, 0
  br i1 %20, label %.loopexit, label %6, !llvm.loop !38

.loopexit:                                        ; preds = %Scl_LibertyCompare.exit.thread, %Scl_LibertyItem.exit, %14
  %.010 = phi ptr [ %17, %14 ], [ @.str.49, %Scl_LibertyItem.exit ], [ @.str.49, %Scl_LibertyCompare.exit.thread ]
  ret ptr %.010
}